Certificate:
    Data:
        Version: 3 (0x2)
        Serial Number: 116695 (0x1c7d7)
        Signature Algorithm: sha256WithRSAEncryption
        Issuer: CN=web-platform-tests
        Validity
            Not Before: Jan 12 00:54:30 2024 GMT
            Not After : Jan 11 00:54:30 2025 GMT
        Subject: CN=web-platform.test
        Subject Public Key Info:
            Public Key Algorithm: rsaEncryption
                RSA Public-Key: (2048 bit)
                Modulus:
                    00:d4:9b:ef:7d:8d:41:44:41:64:fc:99:35:af:b4:
                    b2:b0:f4:ce:6a:a5:9d:1e:67:11:95:ac:94:40:f3:
                    3d:87:fd:92:86:99:c7:77:6c:8d:3a:ce:4a:aa:f0:
                    2d:89:57:e2:3e:35:e8:57:dc:9c:94:a1:2a:c1:6e:
                    aa:83:7a:c0:1a:8c:10:8a:8e:56:40:1a:3c:c1:dd:
                    1b:74:af:97:cd:f1:77:1e:23:33:f0:58:6c:03:51:
                    73:38:d3:3c:40:85:1c:77:ac:4e:19:ea:1a:8a:6e:
                    10:cd:db:5e:9b:df:94:45:8d:43:50:e6:7e:7f:3d:
                    d4:c3:71:b4:5e:b8:8b:c8:54:00:a3:01:1d:93:84:
                    4d:1e:0e:e0:72:27:50:21:3e:28:b3:b6:a5:a2:20:
                    52:b3:68:13:5e:79:36:ce:15:34:c9:f8:c9:ef:ca:
                    a1:f1:f7:ec:cb:7d:a0:40:09:18:e0:34:4b:2d:0d:
                    37:90:cc:1b:45:26:71:99:19:a2:b5:7c:3b:11:ef:
                    41:1f:bd:29:f9:41:f3:6d:50:74:b5:a5:17:61:7f:
                    68:0a:1e:9b:c6:ef:68:63:08:ec:10:b0:8d:5b:dd:
                    85:12:4f:33:b6:fd:9d:96:c3:40:9a:ff:4a:71:fb:
                    78:ab:09:f7:f3:ff:b5:6c:9c:a4:67:4f:ed:e4:9f:
                    64:25
                Exponent: 65537 (0x10001)
        X509v3 extensions:
            X509v3 Basic Constraints: 
                CA:FALSE
            X509v3 Subject Key Identifier: 
                2E:EA:F5:5B:50:C7:13:05:73:AB:0F:52:06:E5:6B:EF:C0:5D:42:FA
            X509v3 Authority Key Identifier: 
                keyid:C2:CB:9F:E3:B5:B1:A9:45:2D:6F:EB:CC:5C:49:8F:99:59:D6:B1:3D

            X509v3 Key Usage: 
                Digital Signature, Non Repudiation, Key Encipherment
            X509v3 Extended Key Usage: 
                TLS Web Server Authentication
            X509v3 Subject Alternative Name: 
                DNS:web-platform.test, DNS:www.web-platform.test, DNS:not-web-platform.test, DNS:www1.web-platform.test, DNS:www2.web-platform.test, DNS:www.www.web-platform.test, DNS:www.not-web-platform.test, DNS:www1.www.web-platform.test, DNS:www2.www.web-platform.test, DNS:www1.not-web-platform.test, DNS:www.www1.web-platform.test, DNS:www2.not-web-platform.test, DNS:www.www2.web-platform.test, DNS:www1.www1.web-platform.test, DNS:www2.www1.web-platform.test, DNS:www2.www2.web-platform.test, DNS:www1.www2.web-platform.test, DNS:www.www.not-web-platform.test, DNS:www.www1.not-web-platform.test, DNS:www2.www.not-web-platform.test, DNS:www1.www.not-web-platform.test, DNS:www.www2.not-web-platform.test, DNS:xn--lve-6lad.web-platform.test, DNS:www1.www1.not-web-platform.test, DNS:www2.www1.not-web-platform.test, DNS:www1.www2.not-web-platform.test, DNS:www2.www2.not-web-platform.test, DNS:xn--lve-6lad.not-web-platform.test, DNS:xn--lve-6lad.www.web-platform.test, DNS:www.xn--lve-6lad.web-platform.test, DNS:www1.xn--lve-6lad.web-platform.test, DNS:www2.xn--lve-6lad.web-platform.test, DNS:xn--lve-6lad.www1.web-platform.test, DNS:xn--lve-6lad.www2.web-platform.test, DNS:www.xn--lve-6lad.not-web-platform.test, DNS:xn--lve-6lad.www.not-web-platform.test, DNS:www1.xn--lve-6lad.not-web-platform.test, DNS:xn--lve-6lad.www1.not-web-platform.test, DNS:xn--lve-6lad.www2.not-web-platform.test, DNS:www2.xn--lve-6lad.not-web-platform.test, DNS:xn--n8j6ds53lwwkrqhv28a.web-platform.test, DNS:xn--lve-6lad.xn--lve-6lad.web-platform.test, DNS:xn--n8j6ds53lwwkrqhv28a.www.web-platform.test, DNS:xn--n8j6ds53lwwkrqhv28a.not-web-platform.test, DNS:www.xn--n8j6ds53lwwkrqhv28a.web-platform.test, DNS:xn--n8j6ds53lwwkrqhv28a.www1.web-platform.test, DNS:www2.xn--n8j6ds53lwwkrqhv28a.web-platform.test, DNS:xn--n8j6ds53lwwkrqhv28a.www2.web-platform.test, DNS:www1.xn--n8j6ds53lwwkrqhv28a.web-platform.test, DNS:xn--lve-6lad.xn--lve-6lad.not-web-platform.test, DNS:xn--n8j6ds53lwwkrqhv28a.www.not-web-platform.test, DNS:www.xn--n8j6ds53lwwkrqhv28a.not-web-platform.test, DNS:www1.xn--n8j6ds53lwwkrqhv28a.not-web-platform.test, DNS:www2.xn--n8j6ds53lwwkrqhv28a.not-web-platform.test, DNS:xn--n8j6ds53lwwkrqhv28a.www1.not-web-platform.test, DNS:xn--n8j6ds53lwwkrqhv28a.www2.not-web-platform.test, DNS:xn--n8j6ds53lwwkrqhv28a.xn--lve-6lad.web-platform.test, DNS:xn--lve-6lad.xn--n8j6ds53lwwkrqhv28a.web-platform.test, DNS:xn--n8j6ds53lwwkrqhv28a.xn--lve-6lad.not-web-platform.test, DNS:xn--lve-6lad.xn--n8j6ds53lwwkrqhv28a.not-web-platform.test, DNS:xn--n8j6ds53lwwkrqhv28a.xn--n8j6ds53lwwkrqhv28a.web-platform.test, DNS:xn--n8j6ds53lwwkrqhv28a.xn--n8j6ds53lwwkrqhv28a.not-web-platform.test
    Signature Algorithm: sha256WithRSAEncryption
         18:cd:9a:3c:66:5c:70:af:1b:27:17:06:ce:6d:61:c3:33:52:
         7c:d7:6c:b8:4f:c5:86:a9:01:21:84:75:75:41:e0:9d:93:3d:
         07:b4:ab:dd:e5:ad:f1:d6:13:84:a9:37:3b:e9:a3:87:a5:b8:
         ae:8d:11:05:ae:ca:13:48:91:1d:cb:d5:27:64:0d:af:c7:3b:
         5f:6c:3a:74:84:95:d2:14:d8:a6:cb:33:c7:0b:23:4f:3b:fe:
         82:17:8a:3d:0d:db:ca:64:1e:ae:7c:4e:1b:78:52:0a:53:4f:
         5d:b9:0a:68:89:20:c8:92:71:d9:2a:52:08:31:35:55:8c:5c:
         62:89:ee:c6:a1:c0:b5:d9:ed:da:e6:ae:86:51:25:76:ad:cd:
         f4:18:b1:38:eb:31:96:18:d3:8e:27:d6:83:84:35:99:3a:e1:
         6b:79:fc:7f:a1:43:41:06:fa:d6:4c:da:f7:b0:e9:64:a0:f1:
         51:26:c1:0b:b8:9c:f0:ef:40:5a:2e:f0:e8:d9:f7:2e:05:e7:
         d8:aa:b9:54:91:79:17:ee:6a:43:19:15:0d:c9:1c:8f:b0:df:
         4a:59:f4:3e:e5:fb:6f:90:13:26:d0:fb:25:b9:78:c7:71:b8:
         07:b3:34:85:2f:87:c3:1a:f3:01:e8:e5:51:07:5f:7f:d5:f3:
         45:27:62:05
-----BEGIN CERTIFICATE-----
MIIMsjCCC5qgAwIBAgIDAcfXMA0GCSqGSIb3DQEBCwUAMB0xGzAZBgNVBAMMEndl
Yi1wbGF0Zm9ybS10ZXN0czAeFw0yNDAxMTIwMDU0MzBaFw0yNTAxMTEwMDU0MzBa
MBwxGjAYBgNVBAMMEXdlYi1wbGF0Zm9ybS50ZXN0MIIBIjANBgkqhkiG9w0BAQEF
AAOCAQ8AMIIBCgKCAQEA1JvvfY1BREFk/Jk1r7SysPTOaqWdHmcRlayUQPM9h/2S
hpnHd2yNOs5KqvAtiVfiPjXoV9yclKEqwW6qg3rAGowQio5WQBo8wd0bdK+XzfF3
HiMz8FhsA1FzONM8QIUcd6xOGeoaim4Qzdtem9+URY1DUOZ+fz3Uw3G0XriLyFQA
owEdk4RNHg7gcidQIT4os7aloiBSs2gTXnk2zhU0yfjJ78qh8ffsy32gQAkY4DRL
LQ03kMwbRSZxmRmitXw7Ee9BH70p+UHzbVB0taUXYX9oCh6bxu9oYwjsELCNW92F
Ek8ztv2dlsNAmv9Kcft4qwn38/+1bJykZ0/t5J9kJQIDAQABo4IJ+jCCCfYwCQYD
VR0TBAIwADAdBgNVHQ4EFgQULur1W1DHEwVzqw9SBuVr78BdQvowHwYDVR0jBBgw
FoAUwsuf47WxqUUtb+vMXEmPmVnWsT0wCwYDVR0PBAQDAgXgMBMGA1UdJQQMMAoG
CCsGAQUFBwMBMIIJhQYDVR0RBIIJfDCCCXiCEXdlYi1wbGF0Zm9ybS50ZXN0ghV3
d3cud2ViLXBsYXRmb3JtLnRlc3SCFW5vdC13ZWItcGxhdGZvcm0udGVzdIIWd3d3
MS53ZWItcGxhdGZvcm0udGVzdIIWd3d3Mi53ZWItcGxhdGZvcm0udGVzdIIZd3d3
Lnd3dy53ZWItcGxhdGZvcm0udGVzdIIZd3d3Lm5vdC13ZWItcGxhdGZvcm0udGVz
dIIad3d3MS53d3cud2ViLXBsYXRmb3JtLnRlc3SCGnd3dzIud3d3LndlYi1wbGF0
Zm9ybS50ZXN0ghp3d3cxLm5vdC13ZWItcGxhdGZvcm0udGVzdIIad3d3Lnd3dzEu
d2ViLXBsYXRmb3JtLnRlc3SCGnd3dzIubm90LXdlYi1wbGF0Zm9ybS50ZXN0ghp3
d3cud3d3Mi53ZWItcGxhdGZvcm0udGVzdIIbd3d3MS53d3cxLndlYi1wbGF0Zm9y
bS50ZXN0ght3d3cyLnd3dzEud2ViLXBsYXRmb3JtLnRlc3SCG3d3dzIud3d3Mi53
ZWItcGxhdGZvcm0udGVzdIIbd3d3MS53d3cyLndlYi1wbGF0Zm9ybS50ZXN0gh13
d3cud3d3Lm5vdC13ZWItcGxhdGZvcm0udGVzdIIed3d3Lnd3dzEubm90LXdlYi1w
bGF0Zm9ybS50ZXN0gh53d3cyLnd3dy5ub3Qtd2ViLXBsYXRmb3JtLnRlc3SCHnd3
dzEud3d3Lm5vdC13ZWItcGxhdGZvcm0udGVzdIIed3d3Lnd3dzIubm90LXdlYi1w
bGF0Zm9ybS50ZXN0gh54bi0tbHZlLTZsYWQud2ViLXBsYXRmb3JtLnRlc3SCH3d3
dzEud3d3MS5ub3Qtd2ViLXBsYXRmb3JtLnRlc3SCH3d3dzIud3d3MS5ub3Qtd2Vi
LXBsYXRmb3JtLnRlc3SCH3d3dzEud3d3Mi5ub3Qtd2ViLXBsYXRmb3JtLnRlc3SC
H3d3dzIud3d3Mi5ub3Qtd2ViLXBsYXRmb3JtLnRlc3SCInhuLS1sdmUtNmxhZC5u
b3Qtd2ViLXBsYXRmb3JtLnRlc3SCInhuLS1sdmUtNmxhZC53d3cud2ViLXBsYXRm
b3JtLnRlc3SCInd3dy54bi0tbHZlLTZsYWQud2ViLXBsYXRmb3JtLnRlc3SCI3d3
dzEueG4tLWx2ZS02bGFkLndlYi1wbGF0Zm9ybS50ZXN0giN3d3cyLnhuLS1sdmUt
NmxhZC53ZWItcGxhdGZvcm0udGVzdIIjeG4tLWx2ZS02bGFkLnd3dzEud2ViLXBs
YXRmb3JtLnRlc3SCI3huLS1sdmUtNmxhZC53d3cyLndlYi1wbGF0Zm9ybS50ZXN0
giZ3d3cueG4tLWx2ZS02bGFkLm5vdC13ZWItcGxhdGZvcm0udGVzdIImeG4tLWx2
ZS02bGFkLnd3dy5ub3Qtd2ViLXBsYXRmb3JtLnRlc3SCJ3d3dzEueG4tLWx2ZS02
bGFkLm5vdC13ZWItcGxhdGZvcm0udGVzdIIneG4tLWx2ZS02bGFkLnd3dzEubm90
LXdlYi1wbGF0Zm9ybS50ZXN0gid4bi0tbHZlLTZsYWQud3d3Mi5ub3Qtd2ViLXBs
YXRmb3JtLnRlc3SCJ3d3dzIueG4tLWx2ZS02bGFkLm5vdC13ZWItcGxhdGZvcm0u
dGVzdIIpeG4tLW44ajZkczUzbHd3a3JxaHYyOGEud2ViLXBsYXRmb3JtLnRlc3SC
K3huLS1sdmUtNmxhZC54bi0tbHZlLTZsYWQud2ViLXBsYXRmb3JtLnRlc3SCLXhu
LS1uOGo2ZHM1M2x3d2tycWh2MjhhLnd3dy53ZWItcGxhdGZvcm0udGVzdIIteG4t
LW44ajZkczUzbHd3a3JxaHYyOGEubm90LXdlYi1wbGF0Zm9ybS50ZXN0gi13d3cu
eG4tLW44ajZkczUzbHd3a3JxaHYyOGEud2ViLXBsYXRmb3JtLnRlc3SCLnhuLS1u
OGo2ZHM1M2x3d2tycWh2MjhhLnd3dzEud2ViLXBsYXRmb3JtLnRlc3SCLnd3dzIu
eG4tLW44ajZkczUzbHd3a3JxaHYyOGEud2ViLXBsYXRmb3JtLnRlc3SCLnhuLS1u
OGo2ZHM1M2x3d2tycWh2MjhhLnd3dzIud2ViLXBsYXRmb3JtLnRlc3SCLnd3dzEu
eG4tLW44ajZkczUzbHd3a3JxaHYyOGEud2ViLXBsYXRmb3JtLnRlc3SCL3huLS1s
dmUtNmxhZC54bi0tbHZlLTZsYWQubm90LXdlYi1wbGF0Zm9ybS50ZXN0gjF4bi0t
bjhqNmRzNTNsd3drcnFodjI4YS53d3cubm90LXdlYi1wbGF0Zm9ybS50ZXN0gjF3
d3cueG4tLW44ajZkczUzbHd3a3JxaHYyOGEubm90LXdlYi1wbGF0Zm9ybS50ZXN0
gjJ3d3cxLnhuLS1uOGo2ZHM1M2x3d2tycWh2MjhhLm5vdC13ZWItcGxhdGZvcm0u
dGVzdIIyd3d3Mi54bi0tbjhqNmRzNTNsd3drcnFodjI4YS5ub3Qtd2ViLXBsYXRm
b3JtLnRlc3SCMnhuLS1uOGo2ZHM1M2x3d2tycWh2MjhhLnd3dzEubm90LXdlYi1w
bGF0Zm9ybS50ZXN0gjJ4bi0tbjhqNmRzNTNsd3drcnFodjI4YS53d3cyLm5vdC13
ZWItcGxhdGZvcm0udGVzdII2eG4tLW44ajZkczUzbHd3a3JxaHYyOGEueG4tLWx2
ZS02bGFkLndlYi1wbGF0Zm9ybS50ZXN0gjZ4bi0tbHZlLTZsYWQueG4tLW44ajZk
czUzbHd3a3JxaHYyOGEud2ViLXBsYXRmb3JtLnRlc3SCOnhuLS1uOGo2ZHM1M2x3
d2tycWh2MjhhLnhuLS1sdmUtNmxhZC5ub3Qtd2ViLXBsYXRmb3JtLnRlc3SCOnhu
LS1sdmUtNmxhZC54bi0tbjhqNmRzNTNsd3drcnFodjI4YS5ub3Qtd2ViLXBsYXRm
b3JtLnRlc3SCQXhuLS1uOGo2ZHM1M2x3d2tycWh2MjhhLnhuLS1uOGo2ZHM1M2x3
d2tycWh2MjhhLndlYi1wbGF0Zm9ybS50ZXN0gkV4bi0tbjhqNmRzNTNsd3drcnFo
djI4YS54bi0tbjhqNmRzNTNsd3drcnFodjI4YS5ub3Qtd2ViLXBsYXRmb3JtLnRl
c3QwDQYJKoZIhvcNAQELBQADggEBABjNmjxmXHCvGycXBs5tYcMzUnzXbLhPxYap
ASGEdXVB4J2TPQe0q93lrfHWE4SpNzvpo4eluK6NEQWuyhNIkR3L1SdkDa/HO19s
OnSEldIU2KbLM8cLI087/oIXij0N28pkHq58Tht4UgpTT125CmiJIMiScdkqUggx
NVWMXGKJ7sahwLXZ7drmroZRJXatzfQYsTjrMZYY044n1oOENZk64Wt5/H+hQ0EG
+tZM2vew6WSg8VEmwQu4nPDvQFou8OjZ9y4F59iquVSReRfuakMZFQ3JHI+w30pZ
9D7l+2+QEybQ+yW5eMdxuAezNIUvh8Ma8wHo5VEHX3/V80UnYgU=
-----END CERTIFICATE-----
